target datalayout = "e-m:e-p270:32:32-p271:32:32-p272:64:64-i64:64-i128:128-f80:128-n8:16:32:64-S128"
target triple = "x86_64-pc-linux-gnu"

%struct.Cnf_Man_t_ = type { ptr, ptr, ptr, i32, ptr, i32, [4 x ptr], ptr, i64, i64, i64 }
%struct.Vec_Ptr_t_ = type { i32, i32, ptr }
%struct.timespec = type { i64, i64 }

; Function Attrs: inlinehint nounwind uwtable
define internal void @Vec_PtrFree(ptr noundef %0) #3 {
  %2 = alloca ptr, align 8
  store ptr %0, ptr %2, align 8, !tbaa !23
  %3 = load ptr, ptr %2, align 8, !tbaa !23
  %4 = getelementptr inbounds nuw %struct.Vec_Ptr_t_, ptr %3, i32 0, i32 2
  %5 = load ptr, ptr %4, align 8, !tbaa !27
  %6 = icmp ne ptr %5, null
  br i1 %6, label %7, label %13

7:                                                ; preds = %1
  %8 = load ptr, ptr %2, align 8, !tbaa !23
  %9 = getelementptr inbounds nuw %struct.Vec_Ptr_t_, ptr %8, i32 0, i32 2
  %10 = load ptr, ptr %9, align 8, !tbaa !27
  call void @free(ptr noundef %10) #5
  %11 = load ptr, ptr %2, align 8, !tbaa !23
  %12 = getelementptr inbounds nuw %struct.Vec_Ptr_t_, ptr %11, i32 0, i32 2
  store ptr null, ptr %12, align 8, !tbaa !27
  br label %14

13:                                               ; preds = %1
  br label %14

14:                                               ; preds = %13, %7
  %15 = load ptr, ptr %2, align 8, !tbaa !23
  %16 = icmp ne ptr %15, null
  br i1 %16, label %17, label %19

17:                                               ; preds = %14
  %18 = load ptr, ptr %2, align 8, !tbaa !23
  call void @free(ptr noundef %18) #5
  store ptr null, ptr %2, align 8, !tbaa !23
  br label %20

19:                                               ; preds = %14
  br label %20

20:                                               ; preds = %19, %17
  ret void
}

; Function Attrs: inlinehint nounwind uwtable
define internal i64 @Abc_Clock() #3 {
  %1 = alloca i64, align 8
  %2 = alloca %struct.timespec, align 8
  %3 = alloca i32, align 4
  %4 = alloca i64, align 8
  call void @llvm.lifetime.start.p0(i64 16, ptr %2) #5
  %5 = call i32 @clock_gettime(i32 noundef 1, ptr noundef %2) #5
  %6 = icmp slt i32 %5, 0
  br i1 %6, label %7, label %8

7:                                                ; preds = %0
  store i64 -1, ptr %1, align 8
  store i32 1, ptr %3, align 4
  br label %19

8:                                                ; preds = %0
  call void @llvm.lifetime.start.p0(i64 8, ptr %4) #5
  %9 = getelementptr inbounds nuw %struct.timespec, ptr %2, i32 0, i32 0
  %10 = load i64, ptr %9, align 8, !tbaa !36
  %11 = mul nsw i64 %10, 1000000
  store i64 %11, ptr %4, align 8, !tbaa !18
  %12 = getelementptr inbounds nuw %struct.timespec, ptr %2, i32 0, i32 1
  %13 = load i64, ptr %12, align 8, !tbaa !38
  %14 = mul nsw i64 %13, 1000000
  %15 = sdiv i64 %14, 1000000000
  %16 = load i64, ptr %4, align 8, !tbaa !18
  %17 = add nsw i64 %16, %15
  store i64 %17, ptr %4, align 8, !tbaa !18
  %18 = load i64, ptr %4, align 8, !tbaa !18
  store i64 %18, ptr %1, align 8
  store i32 1, ptr %3, align 4
  call void @llvm.lifetime.end.p0(i64 8, ptr %4) #5
  br label %19

19:                                               ; preds = %8, %7
  call void @llvm.lifetime.end.p0(i64 16, ptr %2) #5
  %20 = load i64, ptr %1, align 8
  ret i64 %20
}

; Function Attrs: nounwind uwtable
define ptr @Cnf_DeriveWithMan(ptr noundef %0, ptr noundef %1, i32 noundef %2) #0 {
  %4 = alloca ptr, align 8
  %5 = alloca ptr, align 8
  %6 = alloca i32, align 4
  %7 = alloca ptr, align 8
  %8 = alloca ptr, align 8
  %9 = alloca ptr, align 8
  %10 = alloca i64, align 8
  store ptr %0, ptr %4, align 8, !tbaa !3
  store ptr %1, ptr %5, align 8, !tbaa !8
  store i32 %2, ptr %6, align 4, !tbaa !29
  call void @llvm.lifetime.start.p0(i64 8, ptr %7) #5
  call void @llvm.lifetime.start.p0(i64 8, ptr %8) #5
  call void @llvm.lifetime.start.p0(i64 8, ptr %9) #5
  call void @llvm.lifetime.start.p0(i64 8, ptr %10) #5
  %11 = load ptr, ptr %5, align 8, !tbaa !8
  %12 = load ptr, ptr %4, align 8, !tbaa !3
  %13 = getelementptr inbounds nuw %struct.Cnf_Man_t_, ptr %12, i32 0, i32 0
  store ptr %11, ptr %13, align 8, !tbaa !10
  %14 = call i64 @Abc_Clock()
  store i64 %14, ptr %10, align 8, !tbaa !18
  %15 = load ptr, ptr %5, align 8, !tbaa !8
  %16 = call ptr @Dar_ManComputeCuts(ptr noundef %15, i32 noundef 10, i32 noundef 0, i32 noundef 0)
  store ptr %16, ptr %9, align 8, !tbaa !19
  %17 = call i64 @Abc_Clock()
  %18 = load i64, ptr %10, align 8, !tbaa !18
  %19 = sub nsw i64 %17, %18
  %20 = load ptr, ptr %4, align 8, !tbaa !3
  %21 = getelementptr inbounds nuw %struct.Cnf_Man_t_, ptr %20, i32 0, i32 8
  store i64 %19, ptr %21, align 8, !tbaa !21
  %22 = call i64 @Abc_Clock()
  store i64 %22, ptr %10, align 8, !tbaa !18
  %23 = load ptr, ptr %4, align 8, !tbaa !3
  call void @Cnf_DeriveMapping(ptr noundef %23)
  %24 = call i64 @Abc_Clock()
  %25 = load i64, ptr %10, align 8, !tbaa !18
  %26 = sub nsw i64 %24, %25
  %27 = load ptr, ptr %4, align 8, !tbaa !3
  %28 = getelementptr inbounds nuw %struct.Cnf_Man_t_, ptr %27, i32 0, i32 9
  store i64 %26, ptr %28, align 8, !tbaa !22
  %29 = call i64 @Abc_Clock()
  store i64 %29, ptr %10, align 8, !tbaa !18
  %30 = load ptr, ptr %4, align 8, !tbaa !3
  call void @Cnf_ManTransferCuts(ptr noundef %30)
  %31 = load ptr, ptr %4, align 8, !tbaa !3
  %32 = call ptr @Cnf_ManScanMapping(ptr noundef %31, i32 noundef 1, i32 noundef 1)
  store ptr %32, ptr %8, align 8, !tbaa !23
  %33 = load ptr, ptr %4, align 8, !tbaa !3
  %34 = load ptr, ptr %8, align 8, !tbaa !23
  %35 = load i32, ptr %6, align 4, !tbaa !29
  %36 = call ptr @Cnf_ManWriteCnf(ptr noundef %33, ptr noundef %34, i32 noundef %35)
  store ptr %36, ptr %7, align 8, !tbaa !30
  %37 = load ptr, ptr %8, align 8, !tbaa !23
  call void @Vec_PtrFree(ptr noundef %37)
  %38 = load ptr, ptr %9, align 8, !tbaa !19
  call void @Aig_MmFixedStop(ptr noundef %38, i32 noundef 0)
  %39 = call i64 @Abc_Clock()
  %40 = load i64, ptr %10, align 8, !tbaa !18
  %41 = sub nsw i64 %39, %40
  %42 = load ptr, ptr %4, align 8, !tbaa !3
  %43 = getelementptr inbounds nuw %struct.Cnf_Man_t_, ptr %42, i32 0, i32 10
  store i64 %41, ptr %43, align 8, !tbaa !26
  %44 = load ptr, ptr %5, align 8, !tbaa !8
  call void @Aig_ManResetRefs(ptr noundef %44)
  %45 = load ptr, ptr %7, align 8, !tbaa !30
  call void @llvm.lifetime.end.p0(i64 8, ptr %10) #5
  call void @llvm.lifetime.end.p0(i64 8, ptr %9) #5
  call void @llvm.lifetime.end.p0(i64 8, ptr %8) #5
  call void @llvm.lifetime.end.p0(i64 8, ptr %7) #5
  ret ptr %45
}