; Function Attrs: nounwind uwtable
define ptr @Cnf_DeriveWithMan(ptr noundef initializes((0, 8), (88, 96)) %0, ptr noundef %1, i32 noundef %2) local_unnamed_addr #0 {
  %4 = alloca %struct.timespec, align 8
  %5 = alloca %struct.timespec, align 8
  %6 = alloca %struct.timespec, align 8
  %7 = alloca %struct.timespec, align 8
  %8 = alloca %struct.timespec, align 8
  %9 = alloca %struct.timespec, align 8
  store ptr %1, ptr %0, align 8, !tbaa !8
  call void @llvm.lifetime.start.p0(i64 16, ptr nonnull %9) #6
  %10 = call i32 @clock_gettime(i32 noundef 1, ptr noundef nonnull %9) #6
  %11 = icmp slt i32 %10, 0
  br i1 %11, label %Abc_Clock.exit, label %12

12:                                               ; preds = %3
  %13 = load i64, ptr %9, align 8, !tbaa !17
  %.neg28 = mul i64 %13, -1000000
  %14 = getelementptr inbounds nuw i8, ptr %9, i64 8
  %15 = load i64, ptr %14, align 8, !tbaa !19
  %.neg = sdiv i64 %15, -1000
  %.neg29 = add i64 %.neg, %.neg28
  br label %Abc_Clock.exit

Abc_Clock.exit:                                   ; preds = %3, %12
  %.0.i.neg = phi i64 [ %.neg29, %12 ], [ 1, %3 ]
  call void @llvm.lifetime.end.p0(i64 16, ptr nonnull %9) #6
  %16 = call ptr @Dar_ManComputeCuts(ptr noundef %1, i32 noundef 10, i32 noundef 0, i32 noundef 0) #6
  call void @llvm.lifetime.start.p0(i64 16, ptr nonnull %8) #6
  %17 = call i32 @clock_gettime(i32 noundef 1, ptr noundef nonnull %8) #6
  %18 = icmp slt i32 %17, 0
  br i1 %18, label %Abc_Clock.exit19, label %19

19:                                               ; preds = %Abc_Clock.exit
  %20 = load i64, ptr %8, align 8, !tbaa !17
  %21 = mul nsw i64 %20, 1000000
  %22 = getelementptr inbounds nuw i8, ptr %8, i64 8
  %23 = load i64, ptr %22, align 8, !tbaa !19
  %24 = sdiv i64 %23, 1000
  %25 = add nsw i64 %24, %21
  br label %Abc_Clock.exit19

Abc_Clock.exit19:                                 ; preds = %Abc_Clock.exit, %19
  %.0.i18 = phi i64 [ %25, %19 ], [ -1, %Abc_Clock.exit ]
  call void @llvm.lifetime.end.p0(i64 16, ptr nonnull %8) #6
  %26 = add i64 %.0.i18, %.0.i.neg
  %27 = getelementptr inbounds nuw i8, ptr %0, i64 88
  store i64 %26, ptr %27, align 8, !tbaa !20
  call void @llvm.lifetime.start.p0(i64 16, ptr nonnull %7) #6
  %28 = call i32 @clock_gettime(i32 noundef 1, ptr noundef nonnull %7) #6
  %29 = icmp slt i32 %28, 0
  br i1 %29, label %Abc_Clock.exit21, label %30

30:                                               ; preds = %Abc_Clock.exit19
  %31 = load i64, ptr %7, align 8, !tbaa !17
  %.neg31 = mul i64 %31, -1000000
  %32 = getelementptr inbounds nuw i8, ptr %7, i64 8
  %33 = load i64, ptr %32, align 8, !tbaa !19
  %.neg30 = sdiv i64 %33, -1000
  %.neg32 = add i64 %.neg30, %.neg31
  br label %Abc_Clock.exit21

Abc_Clock.exit21:                                 ; preds = %Abc_Clock.exit19, %30
  %.0.i20.neg = phi i64 [ %.neg32, %30 ], [ 1, %Abc_Clock.exit19 ]
  call void @llvm.lifetime.end.p0(i64 16, ptr nonnull %7) #6
  call void @Cnf_DeriveMapping(ptr noundef nonnull %0) #6
  call void @llvm.lifetime.start.p0(i64 16, ptr nonnull %6) #6
  %34 = call i32 @clock_gettime(i32 noundef 1, ptr noundef nonnull %6) #6
  %35 = icmp slt i32 %34, 0
  br i1 %35, label %Abc_Clock.exit23, label %36

36:                                               ; preds = %Abc_Clock.exit21
  %37 = load i64, ptr %6, align 8, !tbaa !17
  %38 = mul nsw i64 %37, 1000000
  %39 = getelementptr inbounds nuw i8, ptr %6, i64 8
  %40 = load i64, ptr %39, align 8, !tbaa !19
  %41 = sdiv i64 %40, 1000
  %42 = add nsw i64 %41, %38
  br label %Abc_Clock.exit23

Abc_Clock.exit23:                                 ; preds = %Abc_Clock.exit21, %36
  %.0.i22 = phi i64 [ %42, %36 ], [ -1, %Abc_Clock.exit21 ]
  call void @llvm.lifetime.end.p0(i64 16, ptr nonnull %6) #6
  %43 = add i64 %.0.i22, %.0.i20.neg
  %44 = getelementptr inbounds nuw i8, ptr %0, i64 96
  store i64 %43, ptr %44, align 8, !tbaa !21
  call void @llvm.lifetime.start.p0(i64 16, ptr nonnull %5) #6
  %45 = call i32 @clock_gettime(i32 noundef 1, ptr noundef nonnull %5) #6
  %46 = icmp slt i32 %45, 0
  br i1 %46, label %Abc_Clock.exit25, label %47

47:                                               ; preds = %Abc_Clock.exit23
  %48 = load i64, ptr %5, align 8, !tbaa !17
  %.neg34 = mul i64 %48, -1000000
  %49 = getelementptr inbounds nuw i8, ptr %5, i64 8
  %50 = load i64, ptr %49, align 8, !tbaa !19
  %.neg33 = sdiv i64 %50, -1000
  %.neg35 = add i64 %.neg33, %.neg34
  br label %Abc_Clock.exit25

Abc_Clock.exit25:                                 ; preds = %Abc_Clock.exit23, %47
  %.0.i24.neg = phi i64 [ %.neg35, %47 ], [ 1, %Abc_Clock.exit23 ]
  call void @llvm.lifetime.end.p0(i64 16, ptr nonnull %5) #6
  call void @Cnf_ManTransferCuts(ptr noundef nonnull %0) #6
  %51 = call ptr @Cnf_ManScanMapping(ptr noundef nonnull %0, i32 noundef 1, i32 noundef 1) #6
  %52 = call ptr @Cnf_ManWriteCnf(ptr noundef nonnull %0, ptr noundef %51, i32 noundef %2) #6
  %53 = getelementptr inbounds nuw i8, ptr %51, i64 8
  %54 = load ptr, ptr %53, align 8, !tbaa !22
  %.not.i = icmp eq ptr %54, null
  br i1 %.not.i, label %Vec_PtrFree.exit, label %55

55:                                               ; preds = %Abc_Clock.exit25
  call void @free(ptr noundef nonnull %54) #6
  br label %Vec_PtrFree.exit

Vec_PtrFree.exit:                                 ; preds = %Abc_Clock.exit25, %55
  call void @free(ptr noundef nonnull %51) #6
  call void @Aig_MmFixedStop(ptr noundef %16, i32 noundef 0) #6
  call void @llvm.lifetime.start.p0(i64 16, ptr nonnull %4) #6
  %56 = call i32 @clock_gettime(i32 noundef 1, ptr noundef nonnull %4) #6
  %57 = icmp slt i32 %56, 0
  br i1 %57, label %Abc_Clock.exit27, label %58

58:                                               ; preds = %Vec_PtrFree.exit
  %59 = load i64, ptr %4, align 8, !tbaa !17
  %60 = mul nsw i64 %59, 1000000
  %61 = getelementptr inbounds nuw i8, ptr %4, i64 8
  %62 = load i64, ptr %61, align 8, !tbaa !19
  %63 = sdiv i64 %62, 1000
  %64 = add nsw i64 %63, %60
  br label %Abc_Clock.exit27

Abc_Clock.exit27:                                 ; preds = %Vec_PtrFree.exit, %58
  %.0.i26 = phi i64 [ %64, %58 ], [ -1, %Vec_PtrFree.exit ]
  call void @llvm.lifetime.end.p0(i64 16, ptr nonnull %4) #6
  %65 = add i64 %.0.i26, %.0.i24.neg
  %66 = getelementptr inbounds nuw i8, ptr %0, i64 104
  store i64 %65, ptr %66, align 8, !tbaa !24
  call void @Aig_ManResetRefs(ptr noundef %1) #6
  ret ptr %52
}